target datalayout = "e-m:e-p270:32:32-p271:32:32-p272:64:64-i64:64-i128:128-f80:128-n8:16:32:64-S128"
target triple = "x86_64-pc-linux-gnu"

; Function Attrs: mustprogress nounwind uwtable
define dso_local noundef ptr @_ZNK5clang4Decl15getDefiningAttrEv(ptr noundef nonnull align 8 dereferenceable(33) %0) #0 align 2 {
  %2 = alloca ptr, align 8
  %3 = alloca ptr, align 8
  %4 = alloca ptr, align 8
  %5 = alloca ptr, align 8
  %6 = alloca ptr, align 8
  store ptr %0, ptr %3, align 8
  %7 = load ptr, ptr %3, align 8
  %8 = call noundef ptr @_ZNK5clang4Decl7getAttrINS_9AliasAttrEEEPT_v(ptr noundef nonnull align 8 dereferenceable(33) %7)
  store ptr %8, ptr %4, align 8
  %9 = load ptr, ptr %4, align 8
  %10 = icmp ne ptr %9, null
  br i1 %10, label %11, label %13

11:                                               ; preds = %1
  %12 = load ptr, ptr %4, align 8
  store ptr %12, ptr %2, align 8
  br label %26

13:                                               ; preds = %1
  %14 = call noundef ptr @_ZNK5clang4Decl7getAttrINS_9IFuncAttrEEEPT_v(ptr noundef nonnull align 8 dereferenceable(33) %7)
  store ptr %14, ptr %5, align 8
  %15 = load ptr, ptr %5, align 8
  %16 = icmp ne ptr %15, null
  br i1 %16, label %17, label %19

17:                                               ; preds = %13
  %18 = load ptr, ptr %5, align 8
  store ptr %18, ptr %2, align 8
  br label %26

19:                                               ; preds = %13
  %20 = call noundef ptr @_ZNK5clang4Decl7getAttrINS_23LoaderUninitializedAttrEEEPT_v(ptr noundef nonnull align 8 dereferenceable(33) %7)
  store ptr %20, ptr %6, align 8
  %21 = load ptr, ptr %6, align 8
  %22 = icmp ne ptr %21, null
  br i1 %22, label %23, label %25

23:                                               ; preds = %19
  %24 = load ptr, ptr %6, align 8
  store ptr %24, ptr %2, align 8
  br label %26

25:                                               ; preds = %19
  store ptr null, ptr %2, align 8
  br label %26

26:                                               ; preds = %25, %23, %17, %11
  %27 = load ptr, ptr %2, align 8
  ret ptr %27
}