; Function Attrs: mustprogress nounwind uwtable
define dso_local noundef ptr @_ZNK5clang4Decl15getDefiningAttrEv(ptr noundef nonnull align 8 dereferenceable(33) %0) local_unnamed_addr #0 align 2 {
  %2 = tail call noundef ptr @_ZNK5clang4Decl7getAttrINS_9AliasAttrEEEPT_v(ptr noundef nonnull align 8 dereferenceable(33) %0)
  %.not = icmp eq ptr %2, null
  br i1 %.not, label %3, label %7

3:                                                ; preds = %1
  %4 = tail call noundef ptr @_ZNK5clang4Decl7getAttrINS_9IFuncAttrEEEPT_v(ptr noundef nonnull align 8 dereferenceable(33) %0)
  %.not11 = icmp eq ptr %4, null
  br i1 %.not11, label %5, label %7

5:                                                ; preds = %3
  %6 = tail call noundef ptr @_ZNK5clang4Decl7getAttrINS_23LoaderUninitializedAttrEEEPT_v(ptr noundef nonnull align 8 dereferenceable(33) %0)
  br label %7

7:                                                ; preds = %5, %3, %1
  %.0 = phi ptr [ %2, %1 ], [ %4, %3 ], [ %6, %5 ]
  ret ptr %.0
}